target datalayout = "e-m:e-p270:32:32-p271:32:32-p272:64:64-i64:64-i128:128-f80:128-n8:16:32:64-S128"
target triple = "x86_64-pc-linux-gnu"

%struct.SurfaceDataRasInfo = type { %struct.SurfaceDataBounds, ptr, i32, i32, i32, i32, ptr, ptr, ptr, ptr, ptr, ptr, i32, %union.anon.0 }
%struct.SurfaceDataBounds = type { i32, i32, i32, i32 }
%union.anon.0 = type { ptr, [56 x i8] }
%struct._CompositeInfo = type { i32, %union.anon.1, i32 }
%union.anon.1 = type { float }
%struct.ImageRef = type { ptr, ptr, i32, i32, i32, i32, i32, i32 }

; Function Attrs: nounwind uwtable
define hidden void @Any3ByteDrawGlyphListXor(ptr noundef %0, ptr noundef %1, i32 noundef %2, i32 noundef %3, i32 noundef %4, i32 noundef %5, i32 noundef %6, i32 noundef %7, i32 noundef %8, ptr noundef %9, ptr noundef %10) #0 {
  %12 = alloca ptr, align 8
  %13 = alloca ptr, align 8
  %14 = alloca i32, align 4
  %15 = alloca i32, align 4
  %16 = alloca i32, align 4
  %17 = alloca i32, align 4
  %18 = alloca i32, align 4
  %19 = alloca i32, align 4
  %20 = alloca i32, align 4
  %21 = alloca ptr, align 8
  %22 = alloca ptr, align 8
  %23 = alloca i32, align 4
  %24 = alloca i32, align 4
  %25 = alloca i32, align 4
  %26 = alloca i32, align 4
  %27 = alloca i8, align 1
  %28 = alloca i8, align 1
  %29 = alloca i8, align 1
  %30 = alloca i8, align 1
  %31 = alloca i8, align 1
  %32 = alloca i8, align 1
  %33 = alloca i8, align 1
  %34 = alloca i8, align 1
  %35 = alloca i8, align 1
  %36 = alloca ptr, align 8
  %37 = alloca ptr, align 8
  %38 = alloca i32, align 4
  %39 = alloca i32, align 4
  %40 = alloca i32, align 4
  %41 = alloca i32, align 4
  %42 = alloca i32, align 4
  %43 = alloca i32, align 4
  %44 = alloca i32, align 4
  %45 = alloca i32, align 4
  store ptr %0, ptr %12, align 8
  store ptr %1, ptr %13, align 8
  store i32 %2, ptr %14, align 4
  store i32 %3, ptr %15, align 4
  store i32 %4, ptr %16, align 4
  store i32 %5, ptr %17, align 4
  store i32 %6, ptr %18, align 4
  store i32 %7, ptr %19, align 4
  store i32 %8, ptr %20, align 4
  store ptr %9, ptr %21, align 8
  store ptr %10, ptr %22, align 8
  %46 = load ptr, ptr %12, align 8
  %47 = getelementptr inbounds %struct.SurfaceDataRasInfo, ptr %46, i32 0, i32 4
  %48 = load i32, ptr %47, align 8
  store i32 %48, ptr %24, align 4
  %49 = load ptr, ptr %22, align 8
  %50 = getelementptr inbounds %struct._CompositeInfo, ptr %49, i32 0, i32 1
  %51 = load i32, ptr %50, align 4
  store i32 %51, ptr %25, align 4
  %52 = load ptr, ptr %22, align 8
  %53 = getelementptr inbounds %struct._CompositeInfo, ptr %52, i32 0, i32 2
  %54 = load i32, ptr %53, align 4
  store i32 %54, ptr %26, align 4
  br label %55

55:                                               ; preds = %11
  %56 = load i32, ptr %25, align 4
  %57 = trunc i32 %56 to i8
  store i8 %57, ptr %27, align 1
  %58 = load i32, ptr %25, align 4
  %59 = ashr i32 %58, 8
  %60 = trunc i32 %59 to i8
  store i8 %60, ptr %28, align 1
  %61 = load i32, ptr %25, align 4
  %62 = ashr i32 %61, 16
  %63 = trunc i32 %62 to i8
  store i8 %63, ptr %29, align 1
  br label %64

64:                                               ; preds = %55
  br label %65

65:                                               ; preds = %64
  %66 = load i32, ptr %15, align 4
  %67 = trunc i32 %66 to i8
  store i8 %67, ptr %30, align 1
  %68 = load i32, ptr %15, align 4
  %69 = ashr i32 %68, 8
  %70 = trunc i32 %69 to i8
  store i8 %70, ptr %31, align 1
  %71 = load i32, ptr %15, align 4
  %72 = ashr i32 %71, 16
  %73 = trunc i32 %72 to i8
  store i8 %73, ptr %32, align 1
  br label %74

74:                                               ; preds = %65
  br label %75

75:                                               ; preds = %74
  %76 = load i32, ptr %26, align 4
  %77 = trunc i32 %76 to i8
  store i8 %77, ptr %33, align 1
  %78 = load i32, ptr %26, align 4
  %79 = lshr i32 %78, 8
  %80 = trunc i32 %79 to i8
  store i8 %80, ptr %34, align 1
  %81 = load i32, ptr %26, align 4
  %82 = lshr i32 %81, 16
  %83 = trunc i32 %82 to i8
  store i8 %83, ptr %35, align 1
  br label %84

84:                                               ; preds = %75
  store i32 0, ptr %23, align 4
  br label %85

85:                                               ; preds = %295, %84
  %86 = load i32, ptr %23, align 4
  %87 = load i32, ptr %14, align 4
  %88 = icmp slt i32 %86, %87
  br i1 %88, label %89, label %298

89:                                               ; preds = %85
  %90 = load ptr, ptr %13, align 8
  %91 = load i32, ptr %23, align 4
  %92 = sext i32 %91 to i64
  %93 = getelementptr inbounds %struct.ImageRef, ptr %90, i64 %92
  %94 = getelementptr inbounds %struct.ImageRef, ptr %93, i32 0, i32 1
  %95 = load ptr, ptr %94, align 8
  store ptr %95, ptr %37, align 8
  %96 = load ptr, ptr %37, align 8
  %97 = icmp ne ptr %96, null
  br i1 %97, label %99, label %98

98:                                               ; preds = %89
  br label %295

99:                                               ; preds = %89
  %100 = load ptr, ptr %13, align 8
  %101 = load i32, ptr %23, align 4
  %102 = sext i32 %101 to i64
  %103 = getelementptr inbounds %struct.ImageRef, ptr %100, i64 %102
  %104 = getelementptr inbounds %struct.ImageRef, ptr %103, i32 0, i32 2
  %105 = load i32, ptr %104, align 8
  store i32 %105, ptr %38, align 4
  %106 = load ptr, ptr %13, align 8
  %107 = load i32, ptr %23, align 4
  %108 = sext i32 %107 to i64
  %109 = getelementptr inbounds %struct.ImageRef, ptr %106, i64 %108
  %110 = getelementptr inbounds %struct.ImageRef, ptr %109, i32 0, i32 6
  %111 = load i32, ptr %110, align 8
  store i32 %111, ptr %39, align 4
  %112 = load ptr, ptr %13, align 8
  %113 = load i32, ptr %23, align 4
  %114 = sext i32 %113 to i64
  %115 = getelementptr inbounds %struct.ImageRef, ptr %112, i64 %114
  %116 = getelementptr inbounds %struct.ImageRef, ptr %115, i32 0, i32 7
  %117 = load i32, ptr %116, align 4
  store i32 %117, ptr %40, align 4
  %118 = load ptr, ptr %13, align 8
  %119 = load i32, ptr %23, align 4
  %120 = sext i32 %119 to i64
  %121 = getelementptr inbounds %struct.ImageRef, ptr %118, i64 %120
  %122 = getelementptr inbounds %struct.ImageRef, ptr %121, i32 0, i32 4
  %123 = load i32, ptr %122, align 8
  store i32 %123, ptr %41, align 4
  %124 = load ptr, ptr %13, align 8
  %125 = load i32, ptr %23, align 4
  %126 = sext i32 %125 to i64
  %127 = getelementptr inbounds %struct.ImageRef, ptr %124, i64 %126
  %128 = getelementptr inbounds %struct.ImageRef, ptr %127, i32 0, i32 5
  %129 = load i32, ptr %128, align 4
  store i32 %129, ptr %42, align 4
  %130 = load i32, ptr %39, align 4
  %131 = load i32, ptr %41, align 4
  %132 = add nsw i32 %130, %131
  store i32 %132, ptr %43, align 4
  %133 = load i32, ptr %40, align 4
  %134 = load i32, ptr %42, align 4
  %135 = add nsw i32 %133, %134
  store i32 %135, ptr %44, align 4
  %136 = load i32, ptr %39, align 4
  %137 = load i32, ptr %17, align 4
  %138 = icmp slt i32 %136, %137
  br i1 %138, label %139, label %148

139:                                              ; preds = %99
  %140 = load i32, ptr %17, align 4
  %141 = load i32, ptr %39, align 4
  %142 = sub nsw i32 %140, %141
  %143 = mul nsw i32 %142, 1
  %144 = load ptr, ptr %37, align 8
  %145 = sext i32 %143 to i64
  %146 = getelementptr inbounds i8, ptr %144, i64 %145
  store ptr %146, ptr %37, align 8
  %147 = load i32, ptr %17, align 4
  store i32 %147, ptr %39, align 4
  br label %148

148:                                              ; preds = %139, %99
  %149 = load i32, ptr %40, align 4
  %150 = load i32, ptr %18, align 4
  %151 = icmp slt i32 %149, %150
  br i1 %151, label %152, label %162

152:                                              ; preds = %148
  %153 = load i32, ptr %18, align 4
  %154 = load i32, ptr %40, align 4
  %155 = sub nsw i32 %153, %154
  %156 = load i32, ptr %38, align 4
  %157 = mul nsw i32 %155, %156
  %158 = load ptr, ptr %37, align 8
  %159 = sext i32 %157 to i64
  %160 = getelementptr inbounds i8, ptr %158, i64 %159
  store ptr %160, ptr %37, align 8
  %161 = load i32, ptr %18, align 4
  store i32 %161, ptr %40, align 4
  br label %162

162:                                              ; preds = %152, %148
  %163 = load i32, ptr %43, align 4
  %164 = load i32, ptr %19, align 4
  %165 = icmp sgt i32 %163, %164
  br i1 %165, label %166, label %168

166:                                              ; preds = %162
  %167 = load i32, ptr %19, align 4
  store i32 %167, ptr %43, align 4
  br label %168

168:                                              ; preds = %166, %162
  %169 = load i32, ptr %44, align 4
  %170 = load i32, ptr %20, align 4
  %171 = icmp sgt i32 %169, %170
  br i1 %171, label %172, label %174

172:                                              ; preds = %168
  %173 = load i32, ptr %20, align 4
  store i32 %173, ptr %44, align 4
  br label %174

174:                                              ; preds = %172, %168
  %175 = load i32, ptr %43, align 4
  %176 = load i32, ptr %39, align 4
  %177 = icmp sle i32 %175, %176
  br i1 %177, label %182, label %178

178:                                              ; preds = %174
  %179 = load i32, ptr %44, align 4
  %180 = load i32, ptr %40, align 4
  %181 = icmp sle i32 %179, %180
  br i1 %181, label %182, label %183

182:                                              ; preds = %178, %174
  br label %295

183:                                              ; preds = %178
  %184 = load i32, ptr %43, align 4
  %185 = load i32, ptr %39, align 4
  %186 = sub nsw i32 %184, %185
  store i32 %186, ptr %41, align 4
  %187 = load i32, ptr %44, align 4
  %188 = load i32, ptr %40, align 4
  %189 = sub nsw i32 %187, %188
  store i32 %189, ptr %42, align 4
  %190 = load ptr, ptr %12, align 8
  %191 = getelementptr inbounds %struct.SurfaceDataRasInfo, ptr %190, i32 0, i32 1
  %192 = load ptr, ptr %191, align 8
  %193 = ptrtoint ptr %192 to i64
  %194 = load i32, ptr %40, align 4
  %195 = sext i32 %194 to i64
  %196 = load i32, ptr %24, align 4
  %197 = sext i32 %196 to i64
  %198 = mul nsw i64 %195, %197
  %199 = load i32, ptr %39, align 4
  %200 = sext i32 %199 to i64
  %201 = mul nsw i64 %200, 3
  %202 = add nsw i64 %198, %201
  %203 = add nsw i64 %193, %202
  %204 = inttoptr i64 %203 to ptr
  store ptr %204, ptr %36, align 8
  br label %205

205:                                              ; preds = %290, %183
  store i32 0, ptr %45, align 4
  br label %206

206:                                              ; preds = %274, %205
  %207 = load ptr, ptr %37, align 8
  %208 = load i32, ptr %45, align 4
  %209 = sext i32 %208 to i64
  %210 = getelementptr inbounds i8, ptr %207, i64 %209
  %211 = load i8, ptr %210, align 1
  %212 = icmp ne i8 %211, 0
  br i1 %212, label %213, label %273

213:                                              ; preds = %206
  br label %214

214:                                              ; preds = %213
  %215 = load i8, ptr %30, align 1
  %216 = zext i8 %215 to i32
  %217 = load i8, ptr %27, align 1
  %218 = zext i8 %217 to i32
  %219 = xor i32 %216, %218
  %220 = load i8, ptr %33, align 1
  %221 = zext i8 %220 to i32
  %222 = xor i32 %221, -1
  %223 = and i32 %219, %222
  %224 = load ptr, ptr %36, align 8
  %225 = load i32, ptr %45, align 4
  %226 = mul nsw i32 3, %225
  %227 = add nsw i32 %226, 0
  %228 = sext i32 %227 to i64
  %229 = getelementptr inbounds i8, ptr %224, i64 %228
  %230 = load i8, ptr %229, align 1
  %231 = zext i8 %230 to i32
  %232 = xor i32 %231, %223
  %233 = trunc i32 %232 to i8
  store i8 %233, ptr %229, align 1
  %234 = load i8, ptr %31, align 1
  %235 = zext i8 %234 to i32
  %236 = load i8, ptr %28, align 1
  %237 = zext i8 %236 to i32
  %238 = xor i32 %235, %237
  %239 = load i8, ptr %34, align 1
  %240 = zext i8 %239 to i32
  %241 = xor i32 %240, -1
  %242 = and i32 %238, %241
  %243 = load ptr, ptr %36, align 8
  %244 = load i32, ptr %45, align 4
  %245 = mul nsw i32 3, %244
  %246 = add nsw i32 %245, 1
  %247 = sext i32 %246 to i64
  %248 = getelementptr inbounds i8, ptr %243, i64 %247
  %249 = load i8, ptr %248, align 1
  %250 = zext i8 %249 to i32
  %251 = xor i32 %250, %242
  %252 = trunc i32 %251 to i8
  store i8 %252, ptr %248, align 1
  %253 = load i8, ptr %32, align 1
  %254 = zext i8 %253 to i32
  %255 = load i8, ptr %29, align 1
  %256 = zext i8 %255 to i32
  %257 = xor i32 %254, %256
  %258 = load i8, ptr %35, align 1
  %259 = zext i8 %258 to i32
  %260 = xor i32 %259, -1
  %261 = and i32 %257, %260
  %262 = load ptr, ptr %36, align 8
  %263 = load i32, ptr %45, align 4
  %264 = mul nsw i32 3, %263
  %265 = add nsw i32 %264, 2
  %266 = sext i32 %265 to i64
  %267 = getelementptr inbounds i8, ptr %262, i64 %266
  %268 = load i8, ptr %267, align 1
  %269 = zext i8 %268 to i32
  %270 = xor i32 %269, %261
  %271 = trunc i32 %270 to i8
  store i8 %271, ptr %267, align 1
  br label %272

272:                                              ; preds = %214
  br label %273

273:                                              ; preds = %272, %206
  br label %274

274:                                              ; preds = %273
  %275 = load i32, ptr %45, align 4
  %276 = add nsw i32 %275, 1
  store i32 %276, ptr %45, align 4
  %277 = load i32, ptr %41, align 4
  %278 = icmp slt i32 %276, %277
  br i1 %278, label %206, label %279, !llvm.loop !26

279:                                              ; preds = %274
  %280 = load ptr, ptr %36, align 8
  %281 = ptrtoint ptr %280 to i64
  %282 = load i32, ptr %24, align 4
  %283 = sext i32 %282 to i64
  %284 = add nsw i64 %281, %283
  %285 = inttoptr i64 %284 to ptr
  store ptr %285, ptr %36, align 8
  %286 = load i32, ptr %38, align 4
  %287 = load ptr, ptr %37, align 8
  %288 = sext i32 %286 to i64
  %289 = getelementptr inbounds i8, ptr %287, i64 %288
  store ptr %289, ptr %37, align 8
  br label %290

290:                                              ; preds = %279
  %291 = load i32, ptr %42, align 4
  %292 = add nsw i32 %291, -1
  store i32 %292, ptr %42, align 4
  %293 = icmp sgt i32 %292, 0
  br i1 %293, label %205, label %294, !llvm.loop !27

294:                                              ; preds = %290
  br label %295

295:                                              ; preds = %294, %182, %98
  %296 = load i32, ptr %23, align 4
  %297 = add nsw i32 %296, 1
  store i32 %297, ptr %23, align 4
  br label %85, !llvm.loop !28

298:                                              ; preds = %85
  ret void
}