; Function Attrs: nofree norecurse nosync nounwind memory(readwrite, inaccessiblemem: none) uwtable
define hidden void @Any3ByteDrawGlyphListXor(ptr nocapture noundef readonly %0, ptr nocapture noundef readonly %1, i32 noundef %2, i32 noundef %3, i32 %4, i32 noundef %5, i32 noundef %6, i32 noundef %7, i32 noundef %8, ptr nocapture readnone %9, ptr nocapture noundef readonly %10) #2 {
  %12 = icmp sgt i32 %2, 0
  br i1 %12, label %.lr.ph, label %._crit_edge

.lr.ph:                                           ; preds = %11
  %13 = getelementptr inbounds i8, ptr %10, i64 8
  %14 = load i32, ptr %13, align 4
  %15 = getelementptr inbounds i8, ptr %10, i64 4
  %16 = load i32, ptr %15, align 4
  %17 = getelementptr inbounds i8, ptr %0, i64 32
  %18 = load i32, ptr %17, align 8
  %19 = getelementptr inbounds i8, ptr %0, i64 16
  %20 = sext i32 %18 to i64
  %21 = xor i32 %16, %3
  %22 = xor i32 %14, -1
  %23 = and i32 %21, %22
  %24 = trunc i32 %23 to i8
  %25 = lshr i32 %23, 8
  %26 = trunc i32 %25 to i8
  %27 = lshr i32 %23, 16
  %28 = trunc i32 %27 to i8
  %wide.trip.count116 = zext nneg i32 %2 to i64
  br label %29

29:                                               ; preds = %.lr.ph, %.loopexit
  %indvars.iv113 = phi i64 [ 0, %.lr.ph ], [ %indvars.iv.next114, %.loopexit ]
  %30 = getelementptr inbounds %struct.ImageRef, ptr %1, i64 %indvars.iv113
  %31 = getelementptr inbounds i8, ptr %30, i64 8
  %32 = load ptr, ptr %31, align 8
  %.not = icmp eq ptr %32, null
  br i1 %.not, label %.loopexit, label %33

33:                                               ; preds = %29
  %34 = getelementptr inbounds i8, ptr %30, i64 32
  %35 = load i32, ptr %34, align 8
  %36 = getelementptr inbounds i8, ptr %30, i64 36
  %37 = load i32, ptr %36, align 4
  %38 = getelementptr inbounds i8, ptr %30, i64 24
  %39 = load i32, ptr %38, align 8
  %40 = getelementptr inbounds i8, ptr %30, i64 28
  %41 = load i32, ptr %40, align 4
  %42 = add nsw i32 %39, %35
  %43 = add nsw i32 %41, %37
  %.090 = tail call i32 @llvm.smax.i32(i32 %35, i32 %5)
  %.089 = tail call i32 @llvm.smax.i32(i32 %37, i32 %6)
  %.087 = tail call i32 @llvm.smin.i32(i32 %42, i32 %7)
  %.086 = tail call i32 @llvm.smin.i32(i32 %43, i32 %8)
  %.not107 = icmp sgt i32 %.087, %.090
  %.not108 = icmp sgt i32 %.086, %.089
  %or.cond = select i1 %.not107, i1 %.not108, i1 false
  br i1 %or.cond, label %44, label %.loopexit

44:                                               ; preds = %33
  %45 = getelementptr inbounds i8, ptr %30, i64 16
  %46 = load i32, ptr %45, align 8
  %47 = icmp slt i32 %37, %6
  %48 = icmp slt i32 %35, %5
  %49 = sub nsw i32 %5, %35
  %narrow = select i1 %48, i32 %49, i32 0
  %.092.idx = sext i32 %narrow to i64
  %.092 = getelementptr inbounds i8, ptr %32, i64 %.092.idx
  %50 = sub nsw i32 %6, %37
  %51 = mul nsw i32 %50, %46
  %narrow110 = select i1 %47, i32 %51, i32 0
  %.1.idx = sext i32 %narrow110 to i64
  %.1 = getelementptr inbounds i8, ptr %.092, i64 %.1.idx
  %52 = sub i32 %.087, %.090
  %53 = sub nsw i32 %.086, %.089
  %54 = load ptr, ptr %19, align 8
  %55 = ptrtoint ptr %54 to i64
  %56 = sext i32 %.089 to i64
  %57 = mul nsw i64 %56, %20
  %58 = sext i32 %.090 to i64
  %59 = mul nsw i64 %58, 3
  %60 = add nsw i64 %57, %59
  %61 = add nsw i64 %60, %55
  %62 = sext i32 %46 to i64
  %smax = tail call i32 @llvm.smax.i32(i32 %52, i32 1)
  %wide.trip.count = zext nneg i32 %smax to i64
  br label %63

63:                                               ; preds = %79, %44
  %.093.in = phi i64 [ %61, %44 ], [ %80, %79 ]
  %.2 = phi ptr [ %.1, %44 ], [ %81, %79 ]
  %.088 = phi i32 [ %53, %44 ], [ %82, %79 ]
  %.093 = inttoptr i64 %.093.in to ptr
  br label %64

64:                                               ; preds = %78, %63
  %indvars.iv = phi i64 [ %indvars.iv.next, %78 ], [ 0, %63 ]
  %65 = getelementptr inbounds i8, ptr %.2, i64 %indvars.iv
  %66 = load i8, ptr %65, align 1
  %.not109 = icmp eq i8 %66, 0
  br i1 %.not109, label %78, label %67

67:                                               ; preds = %64
  %68 = mul nuw nsw i64 %indvars.iv, 3
  %69 = getelementptr inbounds i8, ptr %.093, i64 %68
  %70 = load i8, ptr %69, align 1
  %71 = xor i8 %70, %24
  store i8 %71, ptr %69, align 1
  %72 = getelementptr inbounds i8, ptr %69, i64 1
  %73 = load i8, ptr %72, align 1
  %74 = xor i8 %73, %26
  store i8 %74, ptr %72, align 1
  %75 = getelementptr inbounds i8, ptr %69, i64 2
  %76 = load i8, ptr %75, align 1
  %77 = xor i8 %76, %28
  store i8 %77, ptr %75, align 1
  br label %78

78:                                               ; preds = %64, %67
  %indvars.iv.next = add nuw nsw i64 %indvars.iv, 1
  %exitcond.not = icmp eq i64 %indvars.iv.next, %wide.trip.count
  br i1 %exitcond.not, label %79, label %64, !llvm.loop !26

79:                                               ; preds = %78
  %80 = add nsw i64 %.093.in, %20
  %81 = getelementptr inbounds i8, ptr %.2, i64 %62
  %82 = add nsw i32 %.088, -1
  %83 = icmp sgt i32 %.088, 1
  br i1 %83, label %63, label %.loopexit, !llvm.loop !27

.loopexit:                                        ; preds = %79, %33, %29
  %indvars.iv.next114 = add nuw nsw i64 %indvars.iv113, 1
  %exitcond117.not = icmp eq i64 %indvars.iv.next114, %wide.trip.count116
  br i1 %exitcond117.not, label %._crit_edge, label %29, !llvm.loop !28

._crit_edge:                                      ; preds = %.loopexit, %11
  ret void
}